target datalayout = "e-m:e-p270:32:32-p271:32:32-p272:64:64-i64:64-i128:128-f80:128-n8:16:32:64-S128"
target triple = "x86_64-pc-linux-gnu"

%struct.GetBitContext = type { ptr, ptr, i32, i32, i32 }
%struct.CBSVP8BoolDecoder = type { ptr, i8, i8, i8 }
%struct.CodedBitstreamContext = type { ptr, ptr, ptr, ptr, i32, i32, i32, ptr, ptr, ptr, ptr, i64 }

@.str = private unnamed_addr constant [30 x i8] c"Assertion %s failed at %s:%d\0A\00", align 1
@.str.3 = private unnamed_addr constant [21 x i8] c"libavcodec/cbs_vp8.c\00", align 1
@.str.19 = private unnamed_addr constant [31 x i8] c"start_position <= end_position\00", align 1
@.str.47 = private unnamed_addr constant [25 x i8] c"width >= 0 && width <= 8\00", align 1
@.str.48 = private unnamed_addr constant [15 x i8] c"num_bits <= 32\00", align 1

; Function Attrs: inlinehint nounwind uwtable
define internal i32 @get_bits_count(ptr noundef %0) #3 {
  %2 = alloca ptr, align 8
  store ptr %0, ptr %2, align 8, !tbaa !37
  %3 = load ptr, ptr %2, align 8, !tbaa !37
  %4 = getelementptr inbounds nuw %struct.GetBitContext, ptr %3, i32 0, i32 2
  %5 = load i32, ptr %4, align 8, !tbaa !40
  ret i32 %5
}

; Function Attrs: nounwind uwtable
define internal i32 @cbs_vp8_bool_decoder_read_literal(ptr noundef %0, i8 noundef zeroext %1, i32 noundef %2, ptr noundef %3) #0 {
  %5 = alloca i32, align 4
  %6 = alloca ptr, align 8
  %7 = alloca i8, align 1
  %8 = alloca i32, align 4
  %9 = alloca ptr, align 8
  %10 = alloca i32, align 4
  %11 = alloca i8, align 1
  %12 = alloca i32, align 4
  store ptr %0, ptr %6, align 8, !tbaa !42
  store i8 %1, ptr %7, align 1, !tbaa !72
  store i32 %2, ptr %8, align 4, !tbaa !11
  store ptr %3, ptr %9, align 8, !tbaa !63
  call void @llvm.lifetime.start.p0(i64 4, ptr %10) #8
  store i32 0, ptr %10, align 4, !tbaa !11
  br label %13

13:                                               ; preds = %4
  %14 = load i32, ptr %8, align 4, !tbaa !11
  %15 = icmp ule i32 %14, 32
  br i1 %15, label %17, label %16

16:                                               ; preds = %13
  call void (ptr, i32, ptr, ...) @av_log(ptr noundef null, i32 noundef 0, ptr noundef @.str, ptr noundef @.str.48, ptr noundef @.str.3, i32 noundef 109)
  call void @abort() #9
  unreachable

17:                                               ; preds = %13
  br label %18

18:                                               ; preds = %17
  br label %19

19:                                               ; preds = %18
  %20 = load ptr, ptr %9, align 8, !tbaa !63
  store i32 0, ptr %20, align 4, !tbaa !11
  br label %21

21:                                               ; preds = %42, %19
  %22 = load i32, ptr %8, align 4, !tbaa !11
  %23 = icmp ugt i32 %22, 0
  br i1 %23, label %24, label %45

24:                                               ; preds = %21
  call void @llvm.lifetime.start.p0(i64 1, ptr %11) #8
  store i8 0, ptr %11, align 1, !tbaa !72
  %25 = load ptr, ptr %6, align 8, !tbaa !42
  %26 = load i8, ptr %7, align 1, !tbaa !72
  %27 = call i32 @cbs_vp8_bool_decoder_read_bool(ptr noundef %25, i8 noundef zeroext %26, ptr noundef %11)
  store i32 %27, ptr %10, align 4, !tbaa !11
  %28 = icmp ne i32 %27, 0
  br i1 %28, label %29, label %31

29:                                               ; preds = %24
  %30 = load i32, ptr %10, align 4, !tbaa !11
  store i32 %30, ptr %5, align 4
  store i32 1, ptr %12, align 4
  br label %39

31:                                               ; preds = %24
  %32 = load ptr, ptr %9, align 8, !tbaa !63
  %33 = load i32, ptr %32, align 4, !tbaa !11
  %34 = shl i32 %33, 1
  %35 = load i8, ptr %11, align 1, !tbaa !72
  %36 = zext i8 %35 to i32
  %37 = or i32 %34, %36
  %38 = load ptr, ptr %9, align 8, !tbaa !63
  store i32 %37, ptr %38, align 4, !tbaa !11
  store i32 0, ptr %12, align 4
  br label %39

39:                                               ; preds = %31, %29
  call void @llvm.lifetime.end.p0(i64 1, ptr %11) #8
  %40 = load i32, ptr %12, align 4
  switch i32 %40, label %46 [
    i32 0, label %41
  ]

41:                                               ; preds = %39
  br label %42

42:                                               ; preds = %41
  %43 = load i32, ptr %8, align 4, !tbaa !11
  %44 = add i32 %43, -1
  store i32 %44, ptr %8, align 4, !tbaa !11
  br label %21, !llvm.loop !129

45:                                               ; preds = %21
  store i32 0, ptr %5, align 4
  store i32 1, ptr %12, align 4
  br label %46

46:                                               ; preds = %45, %39
  call void @llvm.lifetime.end.p0(i64 4, ptr %10) #8
  %47 = load i32, ptr %5, align 4
  ret i32 %47
}

; Function Attrs: nounwind uwtable
define internal i32 @cbs_vp8_bool_decoder_read_unsigned(ptr noundef %0, ptr noundef %1, i32 noundef %2, i8 noundef zeroext %3, ptr noundef %4, ptr noundef %5, ptr noundef %6, i1 noundef zeroext %7) #0 {
  %9 = alloca i32, align 4
  %10 = alloca ptr, align 8
  %11 = alloca ptr, align 8
  %12 = alloca i32, align 4
  %13 = alloca i8, align 1
  %14 = alloca ptr, align 8
  %15 = alloca ptr, align 8
  %16 = alloca ptr, align 8
  %17 = alloca i8, align 1
  %18 = alloca i32, align 4
  %19 = alloca ptr, align 8
  %20 = alloca i32, align 4
  %21 = alloca %struct.GetBitContext, align 8
  %22 = alloca i32, align 4
  %23 = alloca i32, align 4
  %24 = alloca i32, align 4
  store ptr %0, ptr %10, align 8, !tbaa !4
  store ptr %1, ptr %11, align 8, !tbaa !42
  store i32 %2, ptr %12, align 4, !tbaa !11
  store i8 %3, ptr %13, align 1, !tbaa !72
  store ptr %4, ptr %14, align 8, !tbaa !39
  store ptr %5, ptr %15, align 8, !tbaa !63
  store ptr %6, ptr %16, align 8, !tbaa !63
  %25 = zext i1 %7 to i8
  store i8 %25, ptr %17, align 1, !tbaa !98
  call void @llvm.lifetime.start.p0(i64 4, ptr %18) #8
  store i32 0, ptr %18, align 4, !tbaa !11
  call void @llvm.lifetime.start.p0(i64 8, ptr %19) #8
  %26 = load ptr, ptr %11, align 8, !tbaa !42
  %27 = getelementptr inbounds nuw %struct.CBSVP8BoolDecoder, ptr %26, i32 0, i32 0
  %28 = load ptr, ptr %27, align 8, !tbaa !44
  store ptr %28, ptr %19, align 8, !tbaa !37
  call void @llvm.lifetime.start.p0(i64 4, ptr %20) #8
  call void @llvm.lifetime.start.p0(i64 32, ptr %21) #8
  br label %29

29:                                               ; preds = %8
  %30 = load ptr, ptr %10, align 8, !tbaa !4
  %31 = getelementptr inbounds nuw %struct.CodedBitstreamContext, ptr %30, i32 0, i32 5
  %32 = load i32, ptr %31, align 4, !tbaa !65
  %33 = icmp ne i32 %32, 0
  br i1 %33, label %34, label %36

34:                                               ; preds = %29
  %35 = load ptr, ptr %19, align 8, !tbaa !37
  call void @llvm.memcpy.p0.p0.i64(ptr align 8 %21, ptr align 8 %35, i64 32, i1 false), !tbaa.struct !68
  br label %36

36:                                               ; preds = %34, %29
  br label %37

37:                                               ; preds = %36
  br label %38

38:                                               ; preds = %37
  br label %39

39:                                               ; preds = %38
  %40 = load i32, ptr %12, align 4, !tbaa !11
  %41 = icmp sge i32 %40, 0
  br i1 %41, label %42, label %45

42:                                               ; preds = %39
  %43 = load i32, ptr %12, align 4, !tbaa !11
  %44 = icmp sle i32 %43, 8
  br i1 %44, label %46, label %45

45:                                               ; preds = %42, %39
  call void (ptr, i32, ptr, ...) @av_log(ptr noundef null, i32 noundef 0, ptr noundef @.str, ptr noundef @.str.47, ptr noundef @.str.3, i32 noundef 136)
  call void @abort() #9
  unreachable

46:                                               ; preds = %42
  br label %47

47:                                               ; preds = %46
  br label %48

48:                                               ; preds = %47
  %49 = load ptr, ptr %11, align 8, !tbaa !42
  %50 = load i8, ptr %13, align 1, !tbaa !72
  %51 = load i32, ptr %12, align 4, !tbaa !11
  %52 = call i32 @cbs_vp8_bool_decoder_read_literal(ptr noundef %49, i8 noundef zeroext %50, i32 noundef %51, ptr noundef %20)
  store i32 %52, ptr %18, align 4, !tbaa !11
  %53 = load i32, ptr %18, align 4, !tbaa !11
  %54 = icmp ne i32 %53, 0
  br i1 %54, label %55, label %57

55:                                               ; preds = %48
  %56 = load i32, ptr %18, align 4, !tbaa !11
  store i32 %56, ptr %9, align 4
  store i32 1, ptr %22, align 4
  br label %97

57:                                               ; preds = %48
  %58 = load i8, ptr %17, align 1, !tbaa !98, !range !100, !noundef !101
  %59 = trunc i8 %58 to i1
  br i1 %59, label %60, label %94

60:                                               ; preds = %57
  br label %61

61:                                               ; preds = %60
  %62 = load ptr, ptr %10, align 8, !tbaa !4
  %63 = getelementptr inbounds nuw %struct.CodedBitstreamContext, ptr %62, i32 0, i32 5
  %64 = load i32, ptr %63, align 4, !tbaa !65
  %65 = icmp ne i32 %64, 0
  br i1 %65, label %66, label %91

66:                                               ; preds = %61
  call void @llvm.lifetime.start.p0(i64 4, ptr %23) #8
  %67 = call i32 @get_bits_count(ptr noundef %21)
  store i32 %67, ptr %23, align 4, !tbaa !11
  call void @llvm.lifetime.start.p0(i64 4, ptr %24) #8
  %68 = load ptr, ptr %19, align 8, !tbaa !37
  %69 = call i32 @get_bits_count(ptr noundef %68)
  store i32 %69, ptr %24, align 4, !tbaa !11
  br label %70

70:                                               ; preds = %66
  %71 = load i32, ptr %23, align 4, !tbaa !11
  %72 = load i32, ptr %24, align 4, !tbaa !11
  %73 = icmp sle i32 %71, %72
  br i1 %73, label %75, label %74

74:                                               ; preds = %70
  call void (ptr, i32, ptr, ...) @av_log(ptr noundef null, i32 noundef 0, ptr noundef @.str, ptr noundef @.str.19, ptr noundef @.str.3, i32 noundef 144)
  call void @abort() #9
  unreachable

75:                                               ; preds = %70
  br label %76

76:                                               ; preds = %75
  br label %77

77:                                               ; preds = %76
  %78 = load ptr, ptr %10, align 8, !tbaa !4
  %79 = getelementptr inbounds nuw %struct.CodedBitstreamContext, ptr %78, i32 0, i32 8
  %80 = load ptr, ptr %79, align 8, !tbaa !70
  %81 = load ptr, ptr %10, align 8, !tbaa !4
  %82 = getelementptr inbounds nuw %struct.CodedBitstreamContext, ptr %81, i32 0, i32 7
  %83 = load ptr, ptr %82, align 8, !tbaa !71
  %84 = load i32, ptr %24, align 4, !tbaa !11
  %85 = load i32, ptr %23, align 4, !tbaa !11
  %86 = sub nsw i32 %84, %85
  %87 = load ptr, ptr %14, align 8, !tbaa !39
  %88 = load ptr, ptr %15, align 8, !tbaa !63
  %89 = load i32, ptr %20, align 4, !tbaa !11
  %90 = zext i32 %89 to i64
  call void %80(ptr noundef %83, ptr noundef %21, i32 noundef %86, ptr noundef %87, ptr noundef %88, i64 noundef %90)
  call void @llvm.lifetime.end.p0(i64 4, ptr %24) #8
  call void @llvm.lifetime.end.p0(i64 4, ptr %23) #8
  br label %91

91:                                               ; preds = %77, %61
  br label %92

92:                                               ; preds = %91
  br label %93

93:                                               ; preds = %92
  br label %94

94:                                               ; preds = %93, %57
  %95 = load i32, ptr %20, align 4, !tbaa !11
  %96 = load ptr, ptr %16, align 8, !tbaa !63
  store i32 %95, ptr %96, align 4, !tbaa !11
  store i32 0, ptr %9, align 4
  store i32 1, ptr %22, align 4
  br label %97

97:                                               ; preds = %94, %55
  call void @llvm.lifetime.end.p0(i64 32, ptr %21) #8
  call void @llvm.lifetime.end.p0(i64 4, ptr %20) #8
  call void @llvm.lifetime.end.p0(i64 8, ptr %19) #8
  call void @llvm.lifetime.end.p0(i64 4, ptr %18) #8
  %98 = load i32, ptr %9, align 4
  ret i32 %98
}