; Function Attrs: nounwind uwtable
define internal fastcc range(i32 -1094995529, 1) i32 @cbs_vp8_bool_decoder_read_unsigned(ptr noundef readonly captures(none) %0, ptr noundef nonnull captures(none) %1, i32 noundef range(i32 1, 9) %2, i8 noundef zeroext %3, ptr noundef %4, ptr noundef %5, ptr noundef nonnull writeonly captures(none) %6, i1 noundef zeroext %7) unnamed_addr #0 {
  %9 = alloca i8, align 1
  %10 = alloca %struct.GetBitContext, align 8
  %11 = load ptr, ptr %1, align 8, !tbaa !37
  call void @llvm.lifetime.start.p0(i64 32, ptr nonnull %10) #7
  %12 = getelementptr inbounds nuw i8, ptr %0, i64 36
  %13 = load i32, ptr %12, align 4, !tbaa !43
  %.not = icmp eq i32 %13, 0
  br i1 %.not, label %.preheader, label %14

14:                                               ; preds = %8
  call void @llvm.memcpy.p0.p0.i64(ptr noundef nonnull align 8 dereferenceable(32) %10, ptr noundef nonnull align 8 dereferenceable(32) %11, i64 32, i1 false), !tbaa.struct !47
  br label %.preheader

.preheader:                                       ; preds = %14, %8
  br label %15

15:                                               ; preds = %.preheader, %17
  %.033 = phi i32 [ %21, %17 ], [ 0, %.preheader ]
  %.01117.i = phi i32 [ %22, %17 ], [ %2, %.preheader ]
  call void @llvm.lifetime.start.p0(i64 1, ptr nonnull %9) #7
  store i8 0, ptr %9, align 1, !tbaa !49
  %16 = call fastcc i32 @cbs_vp8_bool_decoder_read_bool(ptr noundef nonnull %1, i8 noundef zeroext %3, ptr noundef %9)
  %.not14.i = icmp eq i32 %16, 0
  br i1 %.not14.i, label %17, label %cbs_vp8_bool_decoder_read_literal.exit

17:                                               ; preds = %15
  %18 = shl i32 %.033, 1
  %19 = load i8, ptr %9, align 1, !tbaa !49
  %20 = zext i8 %19 to i32
  %21 = or i32 %18, %20
  call void @llvm.lifetime.end.p0(i64 1, ptr nonnull %9) #7
  %22 = add nsw i32 %.01117.i, -1
  %.not.i = icmp eq i32 %22, 0
  br i1 %.not.i, label %23, label %15, !llvm.loop !61

cbs_vp8_bool_decoder_read_literal.exit:           ; preds = %15
  call void @llvm.lifetime.end.p0(i64 1, ptr nonnull %9) #7
  br label %38

23:                                               ; preds = %17
  br i1 %7, label %24, label %37

24:                                               ; preds = %23
  %25 = load i32, ptr %12, align 4, !tbaa !43
  %.not28 = icmp eq i32 %25, 0
  br i1 %.not28, label %37, label %26

26:                                               ; preds = %24
  %27 = getelementptr inbounds nuw i8, ptr %10, i64 16
  %.val30 = load i32, ptr %27, align 8, !tbaa !25
  %28 = getelementptr i8, ptr %11, i64 16
  %.val = load i32, ptr %28, align 8, !tbaa !25
  %.not29 = icmp sgt i32 %.val30, %.val
  br i1 %.not29, label %29, label %30

29:                                               ; preds = %26
  tail call void (ptr, i32, ptr, ...) @av_log(ptr noundef null, i32 noundef 0, ptr noundef nonnull @.str, ptr noundef nonnull @.str.19, ptr noundef nonnull @.str.3, i32 noundef 144) #7
  tail call void @abort() #8
  unreachable

30:                                               ; preds = %26
  %31 = getelementptr inbounds nuw i8, ptr %0, i64 56
  %32 = load ptr, ptr %31, align 8, !tbaa !51
  %33 = getelementptr inbounds nuw i8, ptr %0, i64 48
  %34 = load ptr, ptr %33, align 8, !tbaa !52
  %35 = sub nsw i32 %.val, %.val30
  %36 = zext i32 %21 to i64
  call void %32(ptr noundef %34, ptr noundef nonnull %10, i32 noundef %35, ptr noundef %4, ptr noundef %5, i64 noundef %36) #7
  br label %37

37:                                               ; preds = %24, %30, %23
  store i32 %21, ptr %6, align 4, !tbaa !26
  br label %38

38:                                               ; preds = %cbs_vp8_bool_decoder_read_literal.exit, %37
  call void @llvm.lifetime.end.p0(i64 32, ptr nonnull %10) #7
  ret i32 %16
}